; ModuleID = '38/483.c'
source_filename = "38/483.c"
target datalayout = "e-m:e-p270:32:32-p271:32:32-p272:64:64-i64:64-f80:128-n8:16:32:64-S128"
target triple = "x86_64-pc-linux-gnu"

@.str = private unnamed_addr constant [3 x i8] c"%d\00", align 1
@.str.1 = private unnamed_addr constant [4 x i8] c"%d\0A\00", align 1
@.str.2 = private unnamed_addr constant [4 x i8] c"%lf\00", align 1
@.str.3 = private unnamed_addr constant [7 x i8] c"%.5lf\0A\00", align 1

; Function Attrs: noinline nounwind uwtable
define dso_local i32 @main(i32 %0, i8** %1) #0 {
  %3 = alloca i32, align 4
  %4 = alloca i32, align 4
  %5 = alloca i8**, align 8
  %6 = alloca [200 x i32], align 16
  %7 = alloca i32, align 4
  %8 = alloca i32, align 4
  %9 = alloca i32, align 4
  %10 = alloca double, align 8
  %11 = alloca [200 x double], align 16
  %12 = alloca double, align 8
  %13 = alloca double, align 8
  %14 = alloca [200 x double], align 16
  store i32 0, i32* %3, align 4
  store i32 %0, i32* %4, align 4
  store i8** %1, i8*** %5, align 8
  store double 0.000000e+00, double* %10, align 8
  %15 = bitcast [200 x double]* %11 to i8*
  call void @llvm.memset.p0i8.i64(i8* align 16 %15, i8 0, i64 1600, i1 false)
  store double 0.000000e+00, double* %12, align 8
  store double 0.000000e+00, double* %13, align 8
  %16 = bitcast [200 x double]* %14 to i8*
  call void @llvm.memset.p0i8.i64(i8* align 16 %16, i8 0, i64 1600, i1 false)
  %17 = call i32 (i8*, ...) @__isoc99_scanf(i8* getelementptr inbounds ([3 x i8], [3 x i8]* @.str, i64 0, i64 0), i32* %9)
  store i32 0, i32* %8, align 4
  br label %18

18:                                               ; preds = %94, %2
  %19 = load i32, i32* %8, align 4
  %20 = load i32, i32* %9, align 4
  %21 = icmp slt i32 %19, %20
  br i1 %21, label %22, label %97

22:                                               ; preds = %18
  %23 = load i32, i32* %8, align 4
  %24 = sext i32 %23 to i64
  %25 = getelementptr inbounds [200 x i32], [200 x i32]* %6, i64 0, i64 %24
  %26 = call i32 (i8*, ...) @__isoc99_scanf(i8* getelementptr inbounds ([4 x i8], [4 x i8]* @.str.1, i64 0, i64 0), i32* %25)
  store double 0.000000e+00, double* %12, align 8
  store double 0.000000e+00, double* %13, align 8
  store double 0.000000e+00, double* %10, align 8
  store i32 0, i32* %7, align 4
  br label %27

27:                                               ; preds = %45, %22
  %28 = load i32, i32* %7, align 4
  %29 = load i32, i32* %8, align 4
  %30 = sext i32 %29 to i64
  %31 = getelementptr inbounds [200 x i32], [200 x i32]* %6, i64 0, i64 %30
  %32 = load i32, i32* %31, align 4
  %33 = icmp slt i32 %28, %32
  br i1 %33, label %34, label %48

34:                                               ; preds = %27
  %35 = load i32, i32* %7, align 4
  %36 = sext i32 %35 to i64
  %37 = getelementptr inbounds [200 x double], [200 x double]* %11, i64 0, i64 %36
  %38 = call i32 (i8*, ...) @__isoc99_scanf(i8* getelementptr inbounds ([4 x i8], [4 x i8]* @.str.2, i64 0, i64 0), double* %37)
  %39 = load double, double* %12, align 8
  %40 = load i32, i32* %7, align 4
  %41 = sext i32 %40 to i64
  %42 = getelementptr inbounds [200 x double], [200 x double]* %11, i64 0, i64 %41
  %43 = load double, double* %42, align 8
  %44 = fadd double %39, %43
  store double %44, double* %12, align 8
  br label %45

45:                                               ; preds = %34
  %46 = load i32, i32* %7, align 4
  %47 = add nsw i32 %46, 1
  store i32 %47, i32* %7, align 4
  br label %27

48:                                               ; preds = %27
  %49 = load double, double* %12, align 8
  %50 = load i32, i32* %8, align 4
  %51 = sext i32 %50 to i64
  %52 = getelementptr inbounds [200 x i32], [200 x i32]* %6, i64 0, i64 %51
  %53 = load i32, i32* %52, align 4
  %54 = sitofp i32 %53 to double
  %55 = fdiv double %49, %54
  store double %55, double* %10, align 8
  store i32 0, i32* %7, align 4
  br label %56

56:                                               ; preds = %90, %48
  %57 = load i32, i32* %7, align 4
  %58 = load i32, i32* %8, align 4
  %59 = sext i32 %58 to i64
  %60 = getelementptr inbounds [200 x i32], [200 x i32]* %6, i64 0, i64 %59
  %61 = load i32, i32* %60, align 4
  %62 = icmp slt i32 %57, %61
  br i1 %62, label %63, label %93

63:                                               ; preds = %56
  %64 = load double, double* %13, align 8
  %65 = load i32, i32* %7, align 4
  %66 = sext i32 %65 to i64
  %67 = getelementptr inbounds [200 x double], [200 x double]* %11, i64 0, i64 %66
  %68 = load double, double* %67, align 8
  %69 = load double, double* %10, align 8
  %70 = fsub double %68, %69
  %71 = load i32, i32* %7, align 4
  %72 = sext i32 %71 to i64
  %73 = getelementptr inbounds [200 x double], [200 x double]* %11, i64 0, i64 %72
  %74 = load double, double* %73, align 8
  %75 = load double, double* %10, align 8
  %76 = fsub double %74, %75
  %77 = fmul double %70, %76
  %78 = fadd double %64, %77
  store double %78, double* %13, align 8
  %79 = load double, double* %13, align 8
  %80 = load i32, i32* %8, align 4
  %81 = sext i32 %80 to i64
  %82 = getelementptr inbounds [200 x i32], [200 x i32]* %6, i64 0, i64 %81
  %83 = load i32, i32* %82, align 4
  %84 = sitofp i32 %83 to double
  %85 = fdiv double %79, %84
  %86 = call double @sqrt(double %85) #4
  %87 = load i32, i32* %8, align 4
  %88 = sext i32 %87 to i64
  %89 = getelementptr inbounds [200 x double], [200 x double]* %14, i64 0, i64 %88
  store double %86, double* %89, align 8
  br label %90

90:                                               ; preds = %63
  %91 = load i32, i32* %7, align 4
  %92 = add nsw i32 %91, 1
  store i32 %92, i32* %7, align 4
  br label %56

93:                                               ; preds = %56
  br label %94

94:                                               ; preds = %93
  %95 = load i32, i32* %8, align 4
  %96 = add nsw i32 %95, 1
  store i32 %96, i32* %8, align 4
  br label %18

97:                                               ; preds = %18
  store i32 0, i32* %8, align 4
  br label %98

98:                                               ; preds = %108, %97
  %99 = load i32, i32* %8, align 4
  %100 = load i32, i32* %9, align 4
  %101 = icmp slt i32 %99, %100
  br i1 %101, label %102, label %111

102:                                              ; preds = %98
  %103 = load i32, i32* %8, align 4
  %104 = sext i32 %103 to i64
  %105 = getelementptr inbounds [200 x double], [200 x double]* %14, i64 0, i64 %104
  %106 = load double, double* %105, align 8
  %107 = call i32 (i8*, ...) @printf(i8* getelementptr inbounds ([7 x i8], [7 x i8]* @.str.3, i64 0, i64 0), double %106)
  br label %108

108:                                              ; preds = %102
  %109 = load i32, i32* %8, align 4
  %110 = add nsw i32 %109, 1
  store i32 %110, i32* %8, align 4
  br label %98

111:                                              ; preds = %98
  ret i32 0
}

; Function Attrs: argmemonly nounwind willreturn
declare void @llvm.memset.p0i8.i64(i8* nocapture writeonly, i8, i64, i1 immarg) #1

declare dso_local i32 @__isoc99_scanf(i8*, ...) #2

; Function Attrs: nounwind
declare dso_local double @sqrt(double) #3

declare dso_local i32 @printf(i8*, ...) #2


!llvm.module.flags = !{!0}
!llvm.ident = !{!1}

!0 = !{i32 1, !"wchar_size", i32 4}
!1 = !{!"clang version 10.0.0-4ubuntu1 "}
