; ModuleID = 'source-C-CXX/37/483.c'
source_filename = "source-C-CXX/37/483.c"
target datalayout = "e-m:e-p270:32:32-p271:32:32-p272:64:64-i64:64-f80:128-n8:16:32:64-S128"
target triple = "x86_64-pc-linux-gnu"

@.str = private unnamed_addr constant [3 x i8] c"%d\00", align 1
@.str.1 = private unnamed_addr constant [4 x i8] c"%d\0A\00", align 1
@.str.2 = private unnamed_addr constant [4 x i8] c"%lf\00", align 1
@.str.3 = private unnamed_addr constant [7 x i8] c"%.5lf\0A\00", align 1

; Function Attrs: nofree nounwind sspstrong uwtable
define dso_local i32 @main(i32 %0, i8** nocapture readnone %1) local_unnamed_addr #0 {
  %3 = alloca [200 x i32], align 16
  %4 = alloca i32, align 4
  %5 = alloca [200 x double], align 16
  %6 = alloca [200 x double], align 16
  %7 = bitcast [200 x i32]* %3 to i8*
  call void @llvm.lifetime.start.p0i8(i64 800, i8* nonnull %7) #5
  %8 = bitcast i32* %4 to i8*
  call void @llvm.lifetime.start.p0i8(i64 4, i8* nonnull %8) #5
  %9 = bitcast [200 x double]* %5 to i8*
  call void @llvm.lifetime.start.p0i8(i64 1600, i8* nonnull %9) #5
  call void @llvm.memset.p0i8.i64(i8* noundef nonnull align 16 dereferenceable(1600) %9, i8 0, i64 1600, i1 false)
  %10 = bitcast [200 x double]* %6 to i8*
  call void @llvm.lifetime.start.p0i8(i64 1600, i8* nonnull %10) #5
  call void @llvm.memset.p0i8.i64(i8* noundef nonnull align 16 dereferenceable(1600) %10, i8 0, i64 1600, i1 false)
  %11 = call i32 (i8*, ...) @__isoc99_scanf(i8* getelementptr inbounds ([3 x i8], [3 x i8]* @.str, i64 0, i64 0), i32* nonnull %4)
  %12 = load i32, i32* %4, align 4, !tbaa !5
  %13 = icmp sgt i32 %12, 0
  br i1 %13, label %16, label %69

14:                                               ; preds = %55
  %15 = icmp sgt i32 %57, 0
  br i1 %15, label %60, label %69

16:                                               ; preds = %2, %55
  %17 = phi i64 [ %56, %55 ], [ 0, %2 ]
  %18 = getelementptr inbounds [200 x i32], [200 x i32]* %3, i64 0, i64 %17
  %19 = call i32 (i8*, ...) @__isoc99_scanf(i8* getelementptr inbounds ([4 x i8], [4 x i8]* @.str.1, i64 0, i64 0), i32* nonnull %18)
  %20 = load i32, i32* %18, align 4, !tbaa !5
  %21 = icmp sgt i32 %20, 0
  br i1 %21, label %22, label %55

22:                                               ; preds = %16, %22
  %23 = phi i64 [ %29, %22 ], [ 0, %16 ]
  %24 = phi double [ %28, %22 ], [ 0.000000e+00, %16 ]
  %25 = getelementptr inbounds [200 x double], [200 x double]* %5, i64 0, i64 %23
  %26 = call i32 (i8*, ...) @__isoc99_scanf(i8* getelementptr inbounds ([4 x i8], [4 x i8]* @.str.2, i64 0, i64 0), double* nonnull %25)
  %27 = load double, double* %25, align 8, !tbaa !9
  %28 = fadd double %24, %27
  %29 = add nuw nsw i64 %23, 1
  %30 = load i32, i32* %18, align 4, !tbaa !5
  %31 = sext i32 %30 to i64
  %32 = icmp slt i64 %29, %31
  br i1 %32, label %22, label %33, !llvm.loop !11

33:                                               ; preds = %22
  %34 = sitofp i32 %30 to double
  %35 = fdiv double %28, %34
  %36 = getelementptr inbounds [200 x double], [200 x double]* %6, i64 0, i64 %17
  %37 = icmp sgt i32 %30, 0
  br i1 %37, label %38, label %55

38:                                               ; preds = %33, %38
  %39 = phi i64 [ %50, %38 ], [ 0, %33 ]
  %40 = phi i32 [ %51, %38 ], [ %30, %33 ]
  %41 = phi double [ %46, %38 ], [ 0.000000e+00, %33 ]
  %42 = getelementptr inbounds [200 x double], [200 x double]* %5, i64 0, i64 %39
  %43 = load double, double* %42, align 8, !tbaa !9
  %44 = fsub double %43, %35
  %45 = fmul double %44, %44
  %46 = fadd double %41, %45
  %47 = sitofp i32 %40 to double
  %48 = fdiv double %46, %47
  %49 = call double @sqrt(double %48) #5
  %50 = add nuw nsw i64 %39, 1
  %51 = load i32, i32* %18, align 4, !tbaa !5
  %52 = sext i32 %51 to i64
  %53 = icmp slt i64 %50, %52
  br i1 %53, label %38, label %54, !llvm.loop !13

54:                                               ; preds = %38
  store double %49, double* %36, align 8, !tbaa !9
  br label %55

55:                                               ; preds = %16, %54, %33
  %56 = add nuw nsw i64 %17, 1
  %57 = load i32, i32* %4, align 4, !tbaa !5
  %58 = sext i32 %57 to i64
  %59 = icmp slt i64 %56, %58
  br i1 %59, label %16, label %14, !llvm.loop !14

60:                                               ; preds = %14, %60
  %61 = phi i64 [ %65, %60 ], [ 0, %14 ]
  %62 = getelementptr inbounds [200 x double], [200 x double]* %6, i64 0, i64 %61
  %63 = load double, double* %62, align 8, !tbaa !9
  %64 = call i32 (i8*, ...) @printf(i8* nonnull dereferenceable(1) getelementptr inbounds ([7 x i8], [7 x i8]* @.str.3, i64 0, i64 0), double %63)
  %65 = add nuw nsw i64 %61, 1
  %66 = load i32, i32* %4, align 4, !tbaa !5
  %67 = sext i32 %66 to i64
  %68 = icmp slt i64 %65, %67
  br i1 %68, label %60, label %69, !llvm.loop !15

69:                                               ; preds = %60, %2, %14
  call void @llvm.lifetime.end.p0i8(i64 1600, i8* nonnull %10) #5
  call void @llvm.lifetime.end.p0i8(i64 1600, i8* nonnull %9) #5
  call void @llvm.lifetime.end.p0i8(i64 4, i8* nonnull %8) #5
  call void @llvm.lifetime.end.p0i8(i64 800, i8* nonnull %7) #5
  ret i32 0
}

; Function Attrs: argmemonly mustprogress nofree nosync nounwind willreturn
declare void @llvm.lifetime.start.p0i8(i64 immarg, i8* nocapture) #1

; Function Attrs: argmemonly mustprogress nofree nounwind willreturn writeonly
declare void @llvm.memset.p0i8.i64(i8* nocapture writeonly, i8, i64, i1 immarg) #2

; Function Attrs: nofree nounwind
declare noundef i32 @__isoc99_scanf(i8* nocapture noundef readonly, ...) local_unnamed_addr #3

; Function Attrs: mustprogress nofree nounwind willreturn
declare double @sqrt(double) local_unnamed_addr #4

; Function Attrs: nofree nounwind
declare noundef i32 @printf(i8* nocapture noundef readonly, ...) local_unnamed_addr #3

; Function Attrs: argmemonly mustprogress nofree nosync nounwind willreturn
declare void @llvm.lifetime.end.p0i8(i64 immarg, i8* nocapture) #1


!llvm.module.flags = !{!0, !1, !2, !3}
!llvm.ident = !{!4}

!0 = !{i32 1, !"wchar_size", i32 4}
!1 = !{i32 7, !"PIC Level", i32 2}
!2 = !{i32 7, !"PIE Level", i32 2}
!3 = !{i32 7, !"uwtable", i32 1}
!4 = !{!"clang version 13.0.0"}
!5 = !{!6, !6, i64 0}
!6 = !{!"int", !7, i64 0}
!7 = !{!"omnipotent char", !8, i64 0}
!8 = !{!"Simple C/C++ TBAA"}
!9 = !{!10, !10, i64 0}
!10 = !{!"double", !7, i64 0}
!11 = distinct !{!11, !12}
!12 = !{!"llvm.loop.mustprogress"}
!13 = distinct !{!13, !12}
!14 = distinct !{!14, !12}
!15 = distinct !{!15, !12}
